; Function Attrs: mustprogress uwtable
define internal void @_ZN32pxrInternal_v0_24__pxrReserved__12_GLOBAL__N_128_PrimAdapterAPISchemaAdapter18GetImagingSubprimsERKNS_7UsdPrimERKNS_7TfTokenE(ptr dead_on_unwind noalias writable sret(%"class.std::vector.21") align 8 %0, ptr noundef nonnull readonly align 8 captures(none) dereferenceable(40) %1, ptr noundef nonnull align 8 dereferenceable(32) %2, ptr nonnull readnone align 8 captures(none) %3) unnamed_addr #0 align 2 {
  %5 = getelementptr inbounds nuw i8, ptr %1, i64 24
  %6 = load ptr, ptr %5, align 8
  %7 = load ptr, ptr %6, align 8
  %8 = getelementptr inbounds nuw i8, ptr %7, i64 16
  %9 = load ptr, ptr %8, align 8
  tail call void %9(ptr dead_on_unwind writable sret(%"class.std::vector.21") align 8 %0, ptr noundef nonnull align 8 dereferenceable(32) %6, ptr noundef nonnull align 8 dereferenceable(32) %2)
  ret void
}